target datalayout = "e-m:e-p270:32:32-p271:32:32-p272:64:64-i64:64-i128:128-f80:128-n8:16:32:64-S128"
target triple = "x86_64-unknown-linux-gnu"

%struct.x509_st = type { ptr, ptr, ptr, i32, i32, ptr, %struct.crypto_ex_data_st, i64, i64, i64, i64, i64, i64, ptr, ptr, ptr, ptr, ptr, ptr, [20 x i8], ptr }
%struct.crypto_ex_data_st = type { ptr }
%struct.x509_cinf_st = type { ptr, ptr, ptr, ptr, ptr, ptr, ptr, ptr, ptr, ptr, %struct.ASN1_ENCODING_st }
%struct.ASN1_ENCODING_st = type { ptr, i64, i32 }

; Function Attrs: nounwind uwtable
define hidden i32 @X509V3_EXT_add_nconf(ptr noundef %conf, ptr noundef %ctx, ptr noundef %section, ptr noundef %cert) #0 {
entry:
  %conf.addr = alloca ptr, align 8
  %ctx.addr = alloca ptr, align 8
  %section.addr = alloca ptr, align 8
  %cert.addr = alloca ptr, align 8
  %sk = alloca ptr, align 8
  store ptr %conf, ptr %conf.addr, align 8
  store ptr %ctx, ptr %ctx.addr, align 8
  store ptr %section, ptr %section.addr, align 8
  store ptr %cert, ptr %cert.addr, align 8
  store ptr null, ptr %sk, align 8
  %0 = load ptr, ptr %cert.addr, align 8
  %tobool = icmp ne ptr %0, null
  br i1 %tobool, label %if.then, label %if.end

if.then:                                          ; preds = %entry
  %1 = load ptr, ptr %cert.addr, align 8
  %cert_info = getelementptr inbounds %struct.x509_st, ptr %1, i32 0, i32 0
  %2 = load ptr, ptr %cert_info, align 8
  %extensions = getelementptr inbounds %struct.x509_cinf_st, ptr %2, i32 0, i32 9
  store ptr %extensions, ptr %sk, align 8
  br label %if.end

if.end:                                           ; preds = %if.then, %entry
  %3 = load ptr, ptr %conf.addr, align 8
  %4 = load ptr, ptr %ctx.addr, align 8
  %5 = load ptr, ptr %section.addr, align 8
  %6 = load ptr, ptr %sk, align 8
  %call = call i32 @X509V3_EXT_add_nconf_sk(ptr noundef %3, ptr noundef %4, ptr noundef %5, ptr noundef %6)
  ret i32 %call
}