; Function Attrs: nounwind uwtable
define hidden range(i32 0, 2) i32 @X509V3_EXT_add_nconf(ptr noundef %conf, ptr noundef %ctx, ptr noundef %section, ptr noundef readonly %cert) local_unnamed_addr #0 {
entry:
  %tobool.not = icmp eq ptr %cert, null
  br i1 %tobool.not, label %if.end, label %if.then

if.then:                                          ; preds = %entry
  %0 = load ptr, ptr %cert, align 8
  %extensions = getelementptr inbounds nuw i8, ptr %0, i64 72
  br label %if.end

if.end:                                           ; preds = %if.then, %entry
  %sk.0 = phi ptr [ %extensions, %if.then ], [ null, %entry ]
  %call = tail call i32 @X509V3_EXT_add_nconf_sk(ptr noundef %conf, ptr noundef %ctx, ptr noundef %section, ptr noundef %sk.0)
  ret i32 %call
}